; Function Attrs: mustprogress nounwind uwtable
define hidden void @_ZN7CFGLoop9push_predEP5BlockiR10Block_ListP8PhaseCFG(ptr noundef nonnull align 8 dereferenceable(104) %0, ptr nocapture noundef readonly %1, i32 noundef %2, ptr noundef nonnull align 8 dereferenceable(28) %3, ptr nocapture noundef readonly %4) local_unnamed_addr #0 align 2 {
  %6 = getelementptr inbounds i8, ptr %4, i64 120
  %7 = getelementptr inbounds i8, ptr %1, i64 24
  %8 = load i32, ptr %7, align 8
  %.not.i.i35 = icmp ne i32 %8, 0
  tail call void @llvm.assume(i1 %.not.i.i35)
  %9 = getelementptr inbounds i8, ptr %1, i64 32
  %10 = load ptr, ptr %9, align 8
  %11 = load ptr, ptr %10, align 8
  %12 = getelementptr inbounds i8, ptr %11, i64 8
  %13 = load ptr, ptr %12, align 8
  %14 = zext i32 %2 to i64
  %15 = getelementptr inbounds ptr, ptr %13, i64 %14
  %16 = load ptr, ptr %15, align 8
  %17 = getelementptr inbounds i8, ptr %16, i64 40
  %18 = load i32, ptr %17, align 8
  %19 = load ptr, ptr %6, align 8
  %20 = zext i32 %18 to i64
  %21 = getelementptr inbounds ptr, ptr %19, i64 %20
  %22 = load ptr, ptr %21, align 8
  %23 = getelementptr inbounds i8, ptr %22, i64 96
  %24 = load ptr, ptr %23, align 8
  %25 = icmp eq ptr %24, null
  br i1 %25, label %tailrecurse._crit_edge, label %.lr.ph

.lr.ph:                                           ; preds = %5
  %26 = getelementptr inbounds i8, ptr %0, i64 40
  br label %46

tailrecurse._crit_edge:                           ; preds = %_ZN7CFGLoop15add_nested_loopEPS_.exit, %5
  %.lcssa = phi ptr [ %22, %5 ], [ %74, %_ZN7CFGLoop15add_nested_loopEPS_.exit ]
  %27 = getelementptr inbounds i8, ptr %.lcssa, i64 104
  %28 = load i32, ptr %27, align 8
  %29 = getelementptr inbounds i8, ptr %0, i64 56
  %30 = load ptr, ptr %29, align 8
  %31 = load ptr, ptr %30, align 8
  %32 = getelementptr inbounds i8, ptr %31, i64 104
  %33 = load i32, ptr %32, align 8
  %34 = icmp ugt i32 %28, %33
  br i1 %34, label %35, label %.loopexit

35:                                               ; preds = %tailrecurse._crit_edge
  %36 = getelementptr inbounds i8, ptr %.lcssa, i64 96
  store ptr %0, ptr %36, align 8
  %37 = getelementptr inbounds i8, ptr %3, i64 24
  %38 = load i32, ptr %37, align 8
  %39 = add i32 %38, 1
  store i32 %39, ptr %37, align 8
  %40 = load i32, ptr %3, align 8
  %.not.i.i24 = icmp ugt i32 %40, %38
  br i1 %.not.i.i24, label %_ZN10Block_List4pushEP5Block.exit, label %41

41:                                               ; preds = %35
  tail call void @_ZN11Block_Array4growEj(ptr noundef nonnull align 8 dereferenceable(24) %3, i32 noundef %38) #14
  br label %_ZN10Block_List4pushEP5Block.exit

_ZN10Block_List4pushEP5Block.exit:                ; preds = %35, %41
  %42 = getelementptr inbounds i8, ptr %3, i64 16
  %43 = load ptr, ptr %42, align 8
  %44 = zext i32 %38 to i64
  %45 = getelementptr inbounds ptr, ptr %43, i64 %44
  store ptr %.lcssa, ptr %45, align 8
  br label %.loopexit

46:                                               ; preds = %.lr.ph, %_ZN7CFGLoop15add_nested_loopEPS_.exit
  %47 = phi ptr [ %24, %.lr.ph ], [ %76, %_ZN7CFGLoop15add_nested_loopEPS_.exit ]
  %.not = icmp eq ptr %47, %0
  br i1 %.not, label %.loopexit, label %.preheader

.preheader:                                       ; preds = %46, %.preheader
  %.0 = phi ptr [ %49, %.preheader ], [ %47, %46 ]
  %48 = getelementptr inbounds i8, ptr %.0, i64 24
  %49 = load ptr, ptr %48, align 8
  %.not22 = icmp eq ptr %49, null
  %.not23 = icmp eq ptr %49, %0
  %or.cond = or i1 %.not22, %.not23
  br i1 %or.cond, label %.critedge, label %.preheader, !llvm.loop !62

.critedge:                                        ; preds = %.preheader
  br i1 %.not22, label %50, label %.loopexit

50:                                               ; preds = %.critedge
  %51 = getelementptr inbounds i8, ptr %.0, i64 24
  store ptr %0, ptr %51, align 8
  %52 = load ptr, ptr %26, align 8
  %53 = icmp eq ptr %52, null
  br i1 %53, label %_ZN7CFGLoop15add_nested_loopEPS_.exit, label %.preheader.i

.preheader.i:                                     ; preds = %50, %.preheader.i
  %.0.i = phi ptr [ %55, %.preheader.i ], [ %52, %50 ]
  %54 = getelementptr inbounds i8, ptr %.0.i, i64 32
  %55 = load ptr, ptr %54, align 8
  %.not.i = icmp eq ptr %55, null
  br i1 %.not.i, label %_ZN7CFGLoop15add_nested_loopEPS_.exit.loopexit, label %.preheader.i, !llvm.loop !63

_ZN7CFGLoop15add_nested_loopEPS_.exit.loopexit:   ; preds = %.preheader.i
  %56 = getelementptr inbounds i8, ptr %.0.i, i64 32
  br label %_ZN7CFGLoop15add_nested_loopEPS_.exit

_ZN7CFGLoop15add_nested_loopEPS_.exit:            ; preds = %_ZN7CFGLoop15add_nested_loopEPS_.exit.loopexit, %50
  %.sink.i = phi ptr [ %26, %50 ], [ %56, %_ZN7CFGLoop15add_nested_loopEPS_.exit.loopexit ]
  store ptr %.0, ptr %.sink.i, align 8
  %57 = getelementptr inbounds i8, ptr %.0, i64 56
  %58 = load ptr, ptr %57, align 8
  %59 = load ptr, ptr %58, align 8
  %60 = getelementptr inbounds i8, ptr %59, i64 24
  %61 = load i32, ptr %60, align 8
  %.not.i.i = icmp ne i32 %61, 0
  tail call void @llvm.assume(i1 %.not.i.i)
  %62 = getelementptr inbounds i8, ptr %59, i64 32
  %63 = load ptr, ptr %62, align 8
  %64 = load ptr, ptr %63, align 8
  %65 = getelementptr inbounds i8, ptr %64, i64 8
  %66 = load ptr, ptr %65, align 8
  %67 = getelementptr inbounds i8, ptr %66, i64 8
  %68 = load ptr, ptr %67, align 8
  %69 = getelementptr inbounds i8, ptr %68, i64 40
  %70 = load i32, ptr %69, align 8
  %71 = load ptr, ptr %6, align 8
  %72 = zext i32 %70 to i64
  %73 = getelementptr inbounds ptr, ptr %71, i64 %72
  %74 = load ptr, ptr %73, align 8
  %75 = getelementptr inbounds i8, ptr %74, i64 96
  %76 = load ptr, ptr %75, align 8
  %77 = icmp eq ptr %76, null
  br i1 %77, label %tailrecurse._crit_edge, label %46

.loopexit:                                        ; preds = %46, %.critedge, %tailrecurse._crit_edge, %_ZN10Block_List4pushEP5Block.exit
  ret void
}